target datalayout = "e-m:e-p270:32:32-p271:32:32-p272:64:64-i64:64-i128:128-f80:128-n8:16:32:64-S128"
target triple = "x86_64-pc-linux-gnu"

%struct.FilterCommand = type { ptr, ptr, ptr, double, i32 }

; Function Attrs: nounwind uwtable
define internal void @filter_command_free(ptr noundef %0, ptr noundef %1) #0 {
  %3 = alloca ptr, align 8
  %4 = alloca ptr, align 8
  %5 = alloca ptr, align 8
  store ptr %0, ptr %3, align 8, !tbaa !177
  store ptr %1, ptr %4, align 8, !tbaa !132
  call void @llvm.lifetime.start.p0(i64 8, ptr %5) #14
  %6 = load ptr, ptr %4, align 8, !tbaa !132
  store ptr %6, ptr %5, align 8, !tbaa !206
  %7 = load ptr, ptr %5, align 8, !tbaa !206
  %8 = getelementptr inbounds nuw %struct.FilterCommand, ptr %7, i32 0, i32 0
  call void @av_freep(ptr noundef %8)
  %9 = load ptr, ptr %5, align 8, !tbaa !206
  %10 = getelementptr inbounds nuw %struct.FilterCommand, ptr %9, i32 0, i32 1
  call void @av_freep(ptr noundef %10)
  %11 = load ptr, ptr %5, align 8, !tbaa !206
  %12 = getelementptr inbounds nuw %struct.FilterCommand, ptr %11, i32 0, i32 2
  call void @av_freep(ptr noundef %12)
  %13 = load ptr, ptr %4, align 8, !tbaa !132
  call void @av_free(ptr noundef %13)
  call void @llvm.lifetime.end.p0(i64 8, ptr %5) #14
  ret void
}