; Function Attrs: nounwind uwtable
define internal void @filter_command_free(ptr readnone captures(none) %0, ptr noundef %1) #0 {
  tail call void @av_freep(ptr noundef %1) #17
  %3 = getelementptr inbounds nuw i8, ptr %1, i64 8
  tail call void @av_freep(ptr noundef nonnull %3) #17
  %4 = getelementptr inbounds nuw i8, ptr %1, i64 16
  tail call void @av_freep(ptr noundef nonnull %4) #17
  tail call void @av_free(ptr noundef %1) #17
  ret void
}